	.file	"main.c"
	.text
	.globl	_g
	.data
	.align 4
_g:
	.long	55
	.text
	.globl	_mul
	.def	_mul;	.scl	2;	.type	32;	.endef
_mul:
LFB11:
	.cfi_startproc
	pushl	%ebp
	.cfi_def_cfa_offset 8
	.cfi_offset 5, -8
	movl	%esp, %ebp
	.cfi_def_cfa_register 5
	movl	8(%ebp), %eax
	imull	12(%ebp), %eax
	popl	%ebp
	.cfi_restore 5
	.cfi_def_cfa 4, 4
	ret
	.cfi_endproc
LFE11:
	.globl	_div
	.def	_div;	.scl	2;	.type	32;	.endef
_div:
LFB12:
	.cfi_startproc
	pushl	%ebp
	.cfi_def_cfa_offset 8
	.cfi_offset 5, -8
	movl	%esp, %ebp
	.cfi_def_cfa_register 5
	movl	8(%ebp), %eax
	cltd
	idivl	12(%ebp)
	popl	%ebp
	.cfi_restore 5
	.cfi_def_cfa 4, 4
	ret
	.cfi_endproc
LFE12:
	.globl	_max
	.def	_max;	.scl	2;	.type	32;	.endef
_max:
LFB13:
	.cfi_startproc
	pushl	%ebp
	.cfi_def_cfa_offset 8
	.cfi_offset 5, -8
	movl	%esp, %ebp
	.cfi_def_cfa_register 5
	subl	$16, %esp
	movl	8(%ebp), %eax
	movl	(%eax), %eax
	movl	%eax, -4(%ebp)
	movl	$1, -8(%ebp)
	jmp	L6
L8:
	movl	-8(%ebp), %eax
	leal	0(,%eax,4), %edx
	movl	8(%ebp), %eax
	addl	%edx, %eax
	movl	(%eax), %eax
	cmpl	%eax, -4(%ebp)
	jge	L7
	movl	-8(%ebp), %eax
	leal	0(,%eax,4), %edx
	movl	8(%ebp), %eax
	addl	%edx, %eax
	movl	(%eax), %eax
	movl	%eax, -4(%ebp)
L7:
	addl	$1, -8(%ebp)
L6:
	movl	-8(%ebp), %eax
	cmpl	12(%ebp), %eax
	jl	L8
	movl	-4(%ebp), %eax
	leave
	.cfi_restore 5
	.cfi_def_cfa 4, 4
	ret
	.cfi_endproc
LFE13:
	.globl	_min
	.def	_min;	.scl	2;	.type	32;	.endef
_min:
LFB14:
	.cfi_startproc
	pushl	%ebp
	.cfi_def_cfa_offset 8
	.cfi_offset 5, -8
	movl	%esp, %ebp
	.cfi_def_cfa_register 5
	subl	$16, %esp
	movl	8(%ebp), %eax
	movl	(%eax), %eax
	movl	%eax, -4(%ebp)
	movl	$1, -8(%ebp)
	jmp	L11
L13:
	movl	-8(%ebp), %eax
	leal	0(,%eax,4), %edx
	movl	8(%ebp), %eax
	addl	%edx, %eax
	movl	(%eax), %eax
	cmpl	%eax, -4(%ebp)
	jle	L12
	movl	-8(%ebp), %eax
	leal	0(,%eax,4), %edx
	movl	8(%ebp), %eax
	addl	%edx, %eax
	movl	(%eax), %eax
	movl	%eax, -4(%ebp)
L12:
	addl	$1, -8(%ebp)
L11:
	movl	-8(%ebp), %eax
	cmpl	12(%ebp), %eax
	jl	L13
	movl	-4(%ebp), %eax
	leave
	.cfi_restore 5
	.cfi_def_cfa 4, 4
	ret
	.cfi_endproc
LFE14:
	.def	___main;	.scl	2;	.type	32;	.endef
	.section .rdata,"dr"
LC0:
	.ascii "the array has %d elements\12\0"
LC1:
	.ascii "the min value is %d\0"
	.text
	.globl	_main
	.def	_main;	.scl	2;	.type	32;	.endef
_main:
LFB15:
	.cfi_startproc
	pushl	%ebp
	.cfi_def_cfa_offset 8
	.cfi_offset 5, -8
	movl	%esp, %ebp
	.cfi_def_cfa_register 5
	andl	$-16, %esp
	subl	$48, %esp
	call	___main
	movl	$0, 24(%esp)
	movl	$0, 28(%esp)
	movl	$0, 32(%esp)
	movl	$0, 36(%esp)
	movl	$0, 40(%esp)
	movl	$1, 24(%esp)
	movl	$2, 28(%esp)
	movl	$34, 32(%esp)
	movl	$5, 36(%esp)
	movl	$4, 4(%esp)
	movl	$20, (%esp)
	call	_div
	movl	%eax, 44(%esp)
	movl	44(%esp), %eax
	movl	%eax, 4(%esp)
	movl	$LC0, (%esp)
	call	_printf
	movl	44(%esp), %eax
	movl	%eax, 4(%esp)
	leal	24(%esp), %eax
	movl	%eax, (%esp)
	call	_min
	movl	%eax, 4(%esp)
	movl	$LC1, (%esp)
	call	_printf
	movl	$0, %eax
	leave
	.cfi_restore 5
	.cfi_def_cfa 4, 4
	ret
	.cfi_endproc
LFE15:
	.ident	"GCC: (MinGW.org GCC-8.2.0-3) 8.2.0"
	.def	_printf;	.scl	2;	.type	32;	.endef
